; Function Attrs: nounwind uwtable
define dso_local void @free_attstatsslot(ptr noundef readonly captures(none) %0) local_unnamed_addr #0 {
  %2 = getelementptr inbounds nuw i8, ptr %0, i64 16
  %3 = load ptr, ptr %2, align 8
  %.not = icmp eq ptr %3, null
  br i1 %.not, label %5, label %4

4:                                                ; preds = %1
  tail call void @pfree(ptr noundef nonnull %3) #8
  br label %5

5:                                                ; preds = %4, %1
  %6 = getelementptr inbounds nuw i8, ptr %0, i64 48
  %7 = load ptr, ptr %6, align 8
  %.not8 = icmp eq ptr %7, null
  br i1 %.not8, label %9, label %8

8:                                                ; preds = %5
  tail call void @pfree(ptr noundef nonnull %7) #8
  br label %9

9:                                                ; preds = %8, %5
  %10 = getelementptr inbounds nuw i8, ptr %0, i64 56
  %11 = load ptr, ptr %10, align 8
  %.not9 = icmp eq ptr %11, null
  br i1 %.not9, label %13, label %12

12:                                               ; preds = %9
  tail call void @pfree(ptr noundef nonnull %11) #8
  br label %13

13:                                               ; preds = %12, %9
  ret void
}